; ModuleID = '15/2103.c'
source_filename = "15/2103.c"
target datalayout = "e-m:e-p270:32:32-p271:32:32-p272:64:64-i64:64-f80:128-n8:16:32:64-S128"
target triple = "x86_64-pc-linux-gnu"

@.str = private unnamed_addr constant [3 x i8] c"%d\00", align 1
@.str.1 = private unnamed_addr constant [4 x i8] c"%d\0A\00", align 1

; Function Attrs: noinline nounwind uwtable
define dso_local i32 @main() #0 {
  %1 = alloca i32, align 4
  %2 = alloca i32, align 4
  %3 = alloca i32, align 4
  %4 = alloca i32, align 4
  %5 = alloca i32, align 4
  %6 = alloca i32, align 4
  %7 = alloca i32, align 4
  %8 = alloca i32, align 4
  %9 = alloca i32, align 4
  store i32 0, i32* %1, align 4
  %10 = call i32 (i8*, ...) @__isoc99_scanf(i8* getelementptr inbounds ([3 x i8], [3 x i8]* @.str, i64 0, i64 0), i32* %6)
  store i32 0, i32* %5, align 4
  store i32 0, i32* %8, align 4
  store i32 1, i32* %2, align 4
  br label %11

11:                                               ; preds = %41, %0
  %12 = load i32, i32* %2, align 4
  %13 = load i32, i32* %6, align 4
  %14 = icmp sle i32 %12, %13
  br i1 %14, label %15, label %44

15:                                               ; preds = %11
  store i32 0, i32* %7, align 4
  store i32 1, i32* %3, align 4
  br label %16

16:                                               ; preds = %30, %15
  %17 = load i32, i32* %3, align 4
  %18 = load i32, i32* %6, align 4
  %19 = icmp sle i32 %17, %18
  br i1 %19, label %20, label %33

20:                                               ; preds = %16
  %21 = call i32 (i8*, ...) @__isoc99_scanf(i8* getelementptr inbounds ([3 x i8], [3 x i8]* @.str, i64 0, i64 0), i32* %4)
  %22 = load i32, i32* %4, align 4
  %23 = icmp eq i32 %22, 0
  br i1 %23, label %24, label %29

24:                                               ; preds = %20
  %25 = load i32, i32* %5, align 4
  %26 = add nsw i32 %25, 1
  store i32 %26, i32* %5, align 4
  %27 = load i32, i32* %7, align 4
  %28 = add nsw i32 %27, 1
  store i32 %28, i32* %7, align 4
  br label %29

29:                                               ; preds = %24, %20
  br label %30

30:                                               ; preds = %29
  %31 = load i32, i32* %3, align 4
  %32 = add nsw i32 %31, 1
  store i32 %32, i32* %3, align 4
  br label %16

33:                                               ; preds = %16
  %34 = load i32, i32* %7, align 4
  %35 = icmp ne i32 %34, 0
  br i1 %35, label %36, label %38

36:                                               ; preds = %33
  %37 = load i32, i32* %7, align 4
  store i32 %37, i32* %8, align 4
  br label %40

38:                                               ; preds = %33
  %39 = load i32, i32* %8, align 4
  store i32 %39, i32* %8, align 4
  br label %40

40:                                               ; preds = %38, %36
  br label %41

41:                                               ; preds = %40
  %42 = load i32, i32* %2, align 4
  %43 = add nsw i32 %42, 1
  store i32 %43, i32* %2, align 4
  br label %11

44:                                               ; preds = %11
  %45 = load i32, i32* %8, align 4
  %46 = sub nsw i32 %45, 2
  %47 = load i32, i32* %5, align 4
  %48 = load i32, i32* %8, align 4
  %49 = mul nsw i32 2, %48
  %50 = sub nsw i32 %47, %49
  %51 = mul nsw i32 %46, %50
  %52 = sdiv i32 %51, 2
  store i32 %52, i32* %9, align 4
  %53 = load i32, i32* %9, align 4
  %54 = call i32 (i8*, ...) @printf(i8* getelementptr inbounds ([4 x i8], [4 x i8]* @.str.1, i64 0, i64 0), i32 %53)
  ret i32 0
}

declare dso_local i32 @__isoc99_scanf(i8*, ...) #1

declare dso_local i32 @printf(i8*, ...) #1


!llvm.module.flags = !{!0}
!llvm.ident = !{!1}

!0 = !{i32 1, !"wchar_size", i32 4}
!1 = !{!"clang version 10.0.0-4ubuntu1 "}
