; ModuleID = 'source-C-CXX/14/2103.c'
source_filename = "source-C-CXX/14/2103.c"
target datalayout = "e-m:e-p270:32:32-p271:32:32-p272:64:64-i64:64-f80:128-n8:16:32:64-S128"
target triple = "x86_64-pc-linux-gnu"

@.str = private unnamed_addr constant [3 x i8] c"%d\00", align 1
@.str.1 = private unnamed_addr constant [4 x i8] c"%d\0A\00", align 1

; Function Attrs: nofree nounwind sspstrong uwtable
define dso_local i32 @main() local_unnamed_addr #0 {
  %1 = alloca i32, align 4
  %2 = alloca i32, align 4
  %3 = bitcast i32* %1 to i8*
  call void @llvm.lifetime.start.p0i8(i64 4, i8* nonnull %3) #3
  %4 = bitcast i32* %2 to i8*
  call void @llvm.lifetime.start.p0i8(i64 4, i8* nonnull %4) #3
  %5 = call i32 (i8*, ...) @__isoc99_scanf(i8* getelementptr inbounds ([3 x i8], [3 x i8]* @.str, i64 0, i64 0), i32* nonnull %2)
  %6 = load i32, i32* %2, align 4, !tbaa !5
  %7 = icmp slt i32 %6, 1
  br i1 %7, label %38, label %8

8:                                                ; preds = %0, %32
  %9 = phi i32 [ %34, %32 ], [ %6, %0 ]
  %10 = phi i32 [ %36, %32 ], [ 1, %0 ]
  %11 = phi i32 [ %35, %32 ], [ 0, %0 ]
  %12 = phi i32 [ %33, %32 ], [ 0, %0 ]
  %13 = icmp slt i32 %9, 1
  br i1 %13, label %29, label %14

14:                                               ; preds = %8, %14
  %15 = phi i32 [ %23, %14 ], [ 0, %8 ]
  %16 = phi i32 [ %22, %14 ], [ %12, %8 ]
  %17 = phi i32 [ %24, %14 ], [ 1, %8 ]
  %18 = call i32 (i8*, ...) @__isoc99_scanf(i8* getelementptr inbounds ([3 x i8], [3 x i8]* @.str, i64 0, i64 0), i32* nonnull %1)
  %19 = load i32, i32* %1, align 4, !tbaa !5
  %20 = icmp eq i32 %19, 0
  %21 = zext i1 %20 to i32
  %22 = add nsw i32 %16, %21
  %23 = add nuw nsw i32 %15, %21
  %24 = add nuw nsw i32 %17, 1
  %25 = load i32, i32* %2, align 4, !tbaa !5
  %26 = icmp slt i32 %17, %25
  br i1 %26, label %14, label %27, !llvm.loop !9

27:                                               ; preds = %14
  %28 = icmp eq i32 %23, 0
  br i1 %28, label %29, label %32

29:                                               ; preds = %8, %27
  %30 = phi i32 [ %22, %27 ], [ %12, %8 ]
  %31 = phi i32 [ %25, %27 ], [ %9, %8 ]
  br label %32

32:                                               ; preds = %27, %29
  %33 = phi i32 [ %30, %29 ], [ %22, %27 ]
  %34 = phi i32 [ %31, %29 ], [ %25, %27 ]
  %35 = phi i32 [ %11, %29 ], [ %23, %27 ]
  %36 = add nuw nsw i32 %10, 1
  %37 = icmp slt i32 %10, %34
  br i1 %37, label %8, label %38, !llvm.loop !11

38:                                               ; preds = %32, %0
  %39 = phi i32 [ 0, %0 ], [ %33, %32 ]
  %40 = phi i32 [ 0, %0 ], [ %35, %32 ]
  %41 = add nsw i32 %40, -2
  %42 = mul i32 %40, -2
  %43 = add i32 %42, %39
  %44 = mul nsw i32 %43, %41
  %45 = sdiv i32 %44, 2
  %46 = call i32 (i8*, ...) @printf(i8* nonnull dereferenceable(1) getelementptr inbounds ([4 x i8], [4 x i8]* @.str.1, i64 0, i64 0), i32 %45)
  call void @llvm.lifetime.end.p0i8(i64 4, i8* nonnull %4) #3
  call void @llvm.lifetime.end.p0i8(i64 4, i8* nonnull %3) #3
  ret i32 0
}

; Function Attrs: argmemonly mustprogress nofree nosync nounwind willreturn
declare void @llvm.lifetime.start.p0i8(i64 immarg, i8* nocapture) #1

; Function Attrs: nofree nounwind
declare noundef i32 @__isoc99_scanf(i8* nocapture noundef readonly, ...) local_unnamed_addr #2

; Function Attrs: nofree nounwind
declare noundef i32 @printf(i8* nocapture noundef readonly, ...) local_unnamed_addr #2

; Function Attrs: argmemonly mustprogress nofree nosync nounwind willreturn
declare void @llvm.lifetime.end.p0i8(i64 immarg, i8* nocapture) #1


!llvm.module.flags = !{!0, !1, !2, !3}
!llvm.ident = !{!4}

!0 = !{i32 1, !"wchar_size", i32 4}
!1 = !{i32 7, !"PIC Level", i32 2}
!2 = !{i32 7, !"PIE Level", i32 2}
!3 = !{i32 7, !"uwtable", i32 1}
!4 = !{!"clang version 13.0.0"}
!5 = !{!6, !6, i64 0}
!6 = !{!"int", !7, i64 0}
!7 = !{!"omnipotent char", !8, i64 0}
!8 = !{!"Simple C/C++ TBAA"}
!9 = distinct !{!9, !10}
!10 = !{!"llvm.loop.mustprogress"}
!11 = distinct !{!11, !10, !12}
!12 = !{!"llvm.loop.unswitch.partial.disable"}
